; Function Attrs: nounwind uwtable
define ptr @EVP_MAC_gettable_ctx_params(ptr noundef readonly captures(none) %0) local_unnamed_addr #0 {
  %2 = getelementptr inbounds nuw i8, ptr %0, i64 96
  %3 = load ptr, ptr %2, align 8, !tbaa !30
  %4 = icmp eq ptr %3, null
  br i1 %4, label %10, label %5

5:                                                ; preds = %1
  %6 = load ptr, ptr %0, align 8, !tbaa !17
  %7 = tail call ptr @ossl_provider_ctx(ptr noundef %6) #4
  %8 = load ptr, ptr %2, align 8, !tbaa !30
  %9 = tail call ptr %8(ptr noundef null, ptr noundef %7) #4
  br label %10

10:                                               ; preds = %1, %5
  %.0 = phi ptr [ %9, %5 ], [ null, %1 ]
  ret ptr %.0
}